; Function Attrs: nounwind uwtable
define internal i32 @read_seek(ptr noundef %0, i32 noundef %1, i64 noundef %2, i32 %3) #1 {
  %5 = getelementptr inbounds nuw i8, ptr %0, i64 48
  %6 = load ptr, ptr %5, align 8, !tbaa !67
  %7 = sext i32 %1 to i64
  %8 = getelementptr inbounds ptr, ptr %6, i64 %7
  %9 = load ptr, ptr %8, align 8, !tbaa !68
  %10 = getelementptr inbounds nuw i8, ptr %0, i64 24
  %11 = load ptr, ptr %10, align 8, !tbaa !12
  %spec.store.select = tail call i64 @llvm.smax.i64(i64 %2, i64 0)
  %12 = getelementptr inbounds nuw i8, ptr %11, i64 12
  %13 = load i32, ptr %12, align 4, !tbaa !54
  %14 = zext i32 %13 to i64
  %15 = udiv i64 %spec.store.select, %14
  %16 = getelementptr inbounds nuw i8, ptr %11, i64 4
  %17 = load i32, ptr %16, align 4, !tbaa !52
  %18 = zext i32 %17 to i64
  %.not = icmp samesign ult i64 %15, %18
  %19 = add i32 %17, -1
  %20 = zext i32 %19 to i64
  %.022 = select i1 %.not, i64 %15, i64 %20
  %21 = getelementptr inbounds nuw i8, ptr %0, i64 32
  %22 = load ptr, ptr %21, align 8, !tbaa !41
  %23 = getelementptr inbounds nuw i8, ptr %11, i64 28
  %24 = load i32, ptr %23, align 4, !tbaa !65
  %25 = zext i32 %24 to i64
  %26 = load i32, ptr %11, align 8, !tbaa !53
  %27 = zext i32 %26 to i64
  %28 = mul nuw nsw i64 %.022, %27
  %29 = getelementptr inbounds nuw i8, ptr %9, i64 16
  %30 = load ptr, ptr %29, align 8, !tbaa !31
  %31 = getelementptr inbounds nuw i8, ptr %30, i64 132
  %32 = load i32, ptr %31, align 4, !tbaa !47
  %33 = sext i32 %32 to i64
  %34 = mul nsw i64 %28, %33
  %35 = add nsw i64 %34, %25
  %36 = tail call i64 @avio_seek(ptr noundef %22, i64 noundef %35, i32 noundef 0) #10
  %37 = icmp slt i64 %36, 0
  br i1 %37, label %38, label %40

38:                                               ; preds = %4
  %39 = trunc i64 %36 to i32
  br label %46

40:                                               ; preds = %4
  %41 = trunc i64 %.022 to i32
  %42 = getelementptr inbounds nuw i8, ptr %11, i64 8
  store i32 %41, ptr %42, align 8, !tbaa !51
  %43 = load i32, ptr %12, align 4, !tbaa !54
  %44 = zext i32 %43 to i64
  %45 = mul nuw nsw i64 %.022, %44
  tail call void @avpriv_update_cur_dts(ptr noundef nonnull %0, ptr noundef nonnull %9, i64 noundef %45) #10
  br label %46

46:                                               ; preds = %40, %38
  %.0 = phi i32 [ %39, %38 ], [ 0, %40 ]
  ret i32 %.0
}